
build/init:     file format elf64-x86-64


Disassembly of section .text:

0000000000201210 <strlen>:
  201210:	55                   	push   %rbp
  201211:	48 89 e5             	mov    %rsp,%rbp
  201214:	48 83 ec 10          	sub    $0x10,%rsp
  201218:	48 89 7d f8          	mov    %rdi,-0x8(%rbp)
  20121c:	48 c7 45 f0 00 00 00 	movq   $0x0,-0x10(%rbp)
  201223:	00 
  201224:	48 8b 45 f8          	mov    -0x8(%rbp),%rax
  201228:	48 89 c1             	mov    %rax,%rcx
  20122b:	48 83 c1 01          	add    $0x1,%rcx
  20122f:	48 89 4d f8          	mov    %rcx,-0x8(%rbp)
  201233:	80 38 00             	cmpb   $0x0,(%rax)
  201236:	74 0e                	je     201246 <strlen+0x36>
  201238:	48 8b 45 f0          	mov    -0x10(%rbp),%rax
  20123c:	48 83 c0 01          	add    $0x1,%rax
  201240:	48 89 45 f0          	mov    %rax,-0x10(%rbp)
  201244:	eb de                	jmp    201224 <strlen+0x14>
  201246:	48 8b 45 f0          	mov    -0x10(%rbp),%rax
  20124a:	48 83 c4 10          	add    $0x10,%rsp
  20124e:	5d                   	pop    %rbp
  20124f:	c3                   	ret

0000000000201250 <ClientStart>:
  201250:	55                   	push   %rbp
  201251:	48 89 e5             	mov    %rsp,%rbp
  201254:	48 81 ec 40 01 00 00 	sub    $0x140,%rsp
  20125b:	48 89 7d f8          	mov    %rdi,-0x8(%rbp)
  20125f:	48 89 75 f0          	mov    %rsi,-0x10(%rbp)
  201263:	48 89 55 e8          	mov    %rdx,-0x18(%rbp)
  201267:	48 c7 c0 ff ff ff ff 	mov    $0xffffffffffffffff,%rax
  20126e:	48 89 45 e0          	mov    %rax,-0x20(%rbp)
  201272:	48 8d 3d 03 ef ff ff 	lea    -0x10fd(%rip),%rdi        # 20017c <strlen-0x1094>
  201279:	48 8d 75 e0          	lea    -0x20(%rbp),%rsi
  20127d:	e8 9e 00 00 00       	call   201320 <_ZL8OpenFileILm21EEmRAT__KcPP18OsFileHandleHandle>
  201282:	48 89 45 d8          	mov    %rax,-0x28(%rbp)
  201286:	48 83 7d d8 00       	cmpq   $0x0,-0x28(%rbp)
  20128b:	74 0e                	je     20129b <ClientStart+0x4b>
  20128d:	48 8d 3d fd ee ff ff 	lea    -0x1103(%rip),%rdi        # 200191 <strlen-0x107f>
  201294:	e8 d7 00 00 00       	call   201370 <_ZL10OsDebugLogPKc>
  201299:	eb fe                	jmp    201299 <ClientStart+0x49>
  20129b:	48 c7 85 c8 fe ff ff 	movq   $0xffffffffffffffff,-0x138(%rbp)
  2012a2:	ff ff ff ff 
  2012a6:	48 8b 7d e0          	mov    -0x20(%rbp),%rdi
  2012aa:	48 8d b5 d0 fe ff ff 	lea    -0x130(%rbp),%rsi
  2012b1:	48 8d 95 d0 fe ff ff 	lea    -0x130(%rbp),%rdx
  2012b8:	48 81 c2 00 01 00 00 	add    $0x100,%rdx
  2012bf:	48 8d 8d c8 fe ff ff 	lea    -0x138(%rbp),%rcx
  2012c6:	e8 d5 01 00 00       	call   2014a0 <OsFileRead>
  2012cb:	48 89 85 c0 fe ff ff 	mov    %rax,-0x140(%rbp)
  2012d2:	48 83 bd c0 fe ff ff 	cmpq   $0x0,-0x140(%rbp)
  2012d9:	00 
  2012da:	74 0e                	je     2012ea <ClientStart+0x9a>
  2012dc:	48 8d 3d fb ee ff ff 	lea    -0x1105(%rip),%rdi        # 2001de <strlen-0x1032>
  2012e3:	e8 88 00 00 00       	call   201370 <_ZL10OsDebugLogPKc>
  2012e8:	eb fe                	jmp    2012e8 <ClientStart+0x98>
  2012ea:	48 8d 3d ca ee ff ff 	lea    -0x1136(%rip),%rdi        # 2001bb <strlen-0x1055>
  2012f1:	e8 7a 00 00 00       	call   201370 <_ZL10OsDebugLogPKc>
  2012f6:	48 8d bd d0 fe ff ff 	lea    -0x130(%rbp),%rdi
  2012fd:	48 8d b5 d0 fe ff ff 	lea    -0x130(%rbp),%rsi
  201304:	48 03 b5 c8 fe ff ff 	add    -0x138(%rbp),%rsi
  20130b:	e8 b0 00 00 00       	call   2013c0 <_ZL10OsDebugLogPKcS0_>
  201310:	eb fe                	jmp    201310 <ClientStart+0xc0>
  201312:	cc                   	int3
  201313:	cc                   	int3
  201314:	cc                   	int3
  201315:	cc                   	int3
  201316:	cc                   	int3
  201317:	cc                   	int3
  201318:	cc                   	int3
  201319:	cc                   	int3
  20131a:	cc                   	int3
  20131b:	cc                   	int3
  20131c:	cc                   	int3
  20131d:	cc                   	int3
  20131e:	cc                   	int3
  20131f:	cc                   	int3

0000000000201320 <_ZL8OpenFileILm21EEmRAT__KcPP18OsFileHandleHandle>:
  201320:	55                   	push   %rbp
  201321:	48 89 e5             	mov    %rsp,%rbp
  201324:	48 83 ec 20          	sub    $0x20,%rsp
  201328:	48 89 7d f8          	mov    %rdi,-0x8(%rbp)
  20132c:	48 89 75 f0          	mov    %rsi,-0x10(%rbp)
  201330:	48 8b 45 f8          	mov    -0x8(%rbp),%rax
  201334:	48 89 45 e8          	mov    %rax,-0x18(%rbp)
  201338:	48 8b 45 f8          	mov    -0x8(%rbp),%rax
  20133c:	48 83 c0 15          	add    $0x15,%rax
  201340:	48 83 c0 ff          	add    $0xffffffffffffffff,%rax
  201344:	48 89 45 e0          	mov    %rax,-0x20(%rbp)
  201348:	48 8b 7d e8          	mov    -0x18(%rbp),%rdi
  20134c:	48 8b 75 e0          	mov    -0x20(%rbp),%rsi
  201350:	48 8b 4d f0          	mov    -0x10(%rbp),%rcx
  201354:	ba 01 00 00 00       	mov    $0x1,%edx
  201359:	e8 a2 00 00 00       	call   201400 <OsFileOpen>
  20135e:	48 83 c4 20          	add    $0x20,%rsp
  201362:	5d                   	pop    %rbp
  201363:	c3                   	ret
  201364:	cc                   	int3
  201365:	cc                   	int3
  201366:	cc                   	int3
  201367:	cc                   	int3
  201368:	cc                   	int3
  201369:	cc                   	int3
  20136a:	cc                   	int3
  20136b:	cc                   	int3
  20136c:	cc                   	int3
  20136d:	cc                   	int3
  20136e:	cc                   	int3
  20136f:	cc                   	int3

0000000000201370 <_ZL10OsDebugLogPKc>:
  201370:	55                   	push   %rbp
  201371:	48 89 e5             	mov    %rsp,%rbp
  201374:	48 83 ec 20          	sub    $0x20,%rsp
  201378:	48 89 7d f8          	mov    %rdi,-0x8(%rbp)
  20137c:	48 8b 45 f8          	mov    -0x8(%rbp),%rax
  201380:	48 89 45 f0          	mov    %rax,-0x10(%rbp)
  201384:	48 8b 45 f8          	mov    -0x8(%rbp),%rax
  201388:	48 89 45 e0          	mov    %rax,-0x20(%rbp)
  20138c:	48 8b 7d f8          	mov    -0x8(%rbp),%rdi
  201390:	e8 7b fe ff ff       	call   201210 <strlen>
  201395:	48 89 c1             	mov    %rax,%rcx
  201398:	48 8b 45 e0          	mov    -0x20(%rbp),%rax
  20139c:	48 01 c8             	add    %rcx,%rax
  20139f:	48 89 45 e8          	mov    %rax,-0x18(%rbp)
  2013a3:	48 8b 7d f0          	mov    -0x10(%rbp),%rdi
  2013a7:	48 8b 75 e8          	mov    -0x18(%rbp),%rsi
  2013ab:	e8 10 00 00 00       	call   2013c0 <_ZL10OsDebugLogPKcS0_>
  2013b0:	48 83 c4 20          	add    $0x20,%rsp
  2013b4:	5d                   	pop    %rbp
  2013b5:	c3                   	ret
  2013b6:	cc                   	int3
  2013b7:	cc                   	int3
  2013b8:	cc                   	int3
  2013b9:	cc                   	int3
  2013ba:	cc                   	int3
  2013bb:	cc                   	int3
  2013bc:	cc                   	int3
  2013bd:	cc                   	int3
  2013be:	cc                   	int3
  2013bf:	cc                   	int3

00000000002013c0 <_ZL10OsDebugLogPKcS0_>:
  2013c0:	55                   	push   %rbp
  2013c1:	48 89 e5             	mov    %rsp,%rbp
  2013c4:	48 83 ec 20          	sub    $0x20,%rsp
  2013c8:	48 89 7d f8          	mov    %rdi,-0x8(%rbp)
  2013cc:	48 89 75 f0          	mov    %rsi,-0x10(%rbp)
  2013d0:	48 8b 75 f8          	mov    -0x8(%rbp),%rsi
  2013d4:	48 8b 55 f0          	mov    -0x10(%rbp),%rdx
  2013d8:	31 c0                	xor    %eax,%eax
  2013da:	31 c0                	xor    %eax,%eax
  2013dc:	41 89 c0             	mov    %eax,%r8d
  2013df:	bf 90 00 00 00       	mov    $0x90,%edi
  2013e4:	4c 89 c1             	mov    %r8,%rcx
  2013e7:	e8 18 02 00 00       	call   201604 <OsSystemCall>
  2013ec:	48 89 45 e0          	mov    %rax,-0x20(%rbp)
  2013f0:	48 89 55 e8          	mov    %rdx,-0x18(%rbp)
  2013f4:	48 83 c4 20          	add    $0x20,%rsp
  2013f8:	5d                   	pop    %rbp
  2013f9:	c3                   	ret
  2013fa:	cc                   	int3
  2013fb:	cc                   	int3
  2013fc:	cc                   	int3
  2013fd:	cc                   	int3
  2013fe:	cc                   	int3
  2013ff:	cc                   	int3

0000000000201400 <OsFileOpen>:
  201400:	55                   	push   %rbp
  201401:	48 89 e5             	mov    %rsp,%rbp
  201404:	48 83 ec 30          	sub    $0x30,%rsp
  201408:	48 89 7d f8          	mov    %rdi,-0x8(%rbp)
  20140c:	48 89 75 f0          	mov    %rsi,-0x10(%rbp)
  201410:	48 89 55 e8          	mov    %rdx,-0x18(%rbp)
  201414:	48 89 4d e0          	mov    %rcx,-0x20(%rbp)
  201418:	48 8b 75 f8          	mov    -0x8(%rbp),%rsi
  20141c:	48 8b 55 f0          	mov    -0x10(%rbp),%rdx
  201420:	48 8b 4d e8          	mov    -0x18(%rbp),%rcx
  201424:	31 c0                	xor    %eax,%eax
  201426:	31 c0                	xor    %eax,%eax
  201428:	41 89 c0             	mov    %eax,%r8d
  20142b:	bf 10 00 00 00       	mov    $0x10,%edi
  201430:	e8 cf 01 00 00       	call   201604 <OsSystemCall>
  201435:	48 89 45 d0          	mov    %rax,-0x30(%rbp)
  201439:	48 89 55 d8          	mov    %rdx,-0x28(%rbp)
  20143d:	48 8b 4d d8          	mov    -0x28(%rbp),%rcx
  201441:	48 8b 45 e0          	mov    -0x20(%rbp),%rax
  201445:	48 89 08             	mov    %rcx,(%rax)
  201448:	48 8b 45 d0          	mov    -0x30(%rbp),%rax
  20144c:	48 83 c4 30          	add    $0x30,%rsp
  201450:	5d                   	pop    %rbp
  201451:	c3                   	ret
  201452:	cc                   	int3
  201453:	cc                   	int3
  201454:	cc                   	int3
  201455:	cc                   	int3
  201456:	cc                   	int3
  201457:	cc                   	int3
  201458:	cc                   	int3
  201459:	cc                   	int3
  20145a:	cc                   	int3
  20145b:	cc                   	int3
  20145c:	cc                   	int3
  20145d:	cc                   	int3
  20145e:	cc                   	int3
  20145f:	cc                   	int3

0000000000201460 <OsFileClose>:
  201460:	55                   	push   %rbp
  201461:	48 89 e5             	mov    %rsp,%rbp
  201464:	48 83 ec 20          	sub    $0x20,%rsp
  201468:	48 89 7d f8          	mov    %rdi,-0x8(%rbp)
  20146c:	48 8b 75 f8          	mov    -0x8(%rbp),%rsi
  201470:	31 c0                	xor    %eax,%eax
  201472:	31 c0                	xor    %eax,%eax
  201474:	41 89 c0             	mov    %eax,%r8d
  201477:	bf 11 00 00 00       	mov    $0x11,%edi
  20147c:	4c 89 c2             	mov    %r8,%rdx
  20147f:	4c 89 c1             	mov    %r8,%rcx
  201482:	e8 7d 01 00 00       	call   201604 <OsSystemCall>
  201487:	48 89 45 e8          	mov    %rax,-0x18(%rbp)
  20148b:	48 89 55 f0          	mov    %rdx,-0x10(%rbp)
  20148f:	48 8b 45 e8          	mov    -0x18(%rbp),%rax
  201493:	48 83 c4 20          	add    $0x20,%rsp
  201497:	5d                   	pop    %rbp
  201498:	c3                   	ret
  201499:	cc                   	int3
  20149a:	cc                   	int3
  20149b:	cc                   	int3
  20149c:	cc                   	int3
  20149d:	cc                   	int3
  20149e:	cc                   	int3
  20149f:	cc                   	int3

00000000002014a0 <OsFileRead>:
  2014a0:	55                   	push   %rbp
  2014a1:	48 89 e5             	mov    %rsp,%rbp
  2014a4:	48 83 ec 30          	sub    $0x30,%rsp
  2014a8:	48 89 7d f8          	mov    %rdi,-0x8(%rbp)
  2014ac:	48 89 75 f0          	mov    %rsi,-0x10(%rbp)
  2014b0:	48 89 55 e8          	mov    %rdx,-0x18(%rbp)
  2014b4:	48 89 4d e0          	mov    %rcx,-0x20(%rbp)
  2014b8:	48 8b 75 f8          	mov    -0x8(%rbp),%rsi
  2014bc:	48 8b 55 f0          	mov    -0x10(%rbp),%rdx
  2014c0:	48 8b 4d e8          	mov    -0x18(%rbp),%rcx
  2014c4:	31 c0                	xor    %eax,%eax
  2014c6:	31 c0                	xor    %eax,%eax
  2014c8:	41 89 c0             	mov    %eax,%r8d
  2014cb:	bf 12 00 00 00       	mov    $0x12,%edi
  2014d0:	e8 2f 01 00 00       	call   201604 <OsSystemCall>
  2014d5:	48 89 45 d0          	mov    %rax,-0x30(%rbp)
  2014d9:	48 89 55 d8          	mov    %rdx,-0x28(%rbp)
  2014dd:	48 8b 4d d8          	mov    -0x28(%rbp),%rcx
  2014e1:	48 8b 45 e0          	mov    -0x20(%rbp),%rax
  2014e5:	48 89 08             	mov    %rcx,(%rax)
  2014e8:	48 8b 45 d0          	mov    -0x30(%rbp),%rax
  2014ec:	48 83 c4 30          	add    $0x30,%rsp
  2014f0:	5d                   	pop    %rbp
  2014f1:	c3                   	ret
  2014f2:	cc                   	int3
  2014f3:	cc                   	int3
  2014f4:	cc                   	int3
  2014f5:	cc                   	int3
  2014f6:	cc                   	int3
  2014f7:	cc                   	int3
  2014f8:	cc                   	int3
  2014f9:	cc                   	int3
  2014fa:	cc                   	int3
  2014fb:	cc                   	int3
  2014fc:	cc                   	int3
  2014fd:	cc                   	int3
  2014fe:	cc                   	int3
  2014ff:	cc                   	int3

0000000000201500 <OsFileWrite>:
  201500:	55                   	push   %rbp
  201501:	48 89 e5             	mov    %rsp,%rbp
  201504:	48 83 ec 30          	sub    $0x30,%rsp
  201508:	48 89 7d f8          	mov    %rdi,-0x8(%rbp)
  20150c:	48 89 75 f0          	mov    %rsi,-0x10(%rbp)
  201510:	48 89 55 e8          	mov    %rdx,-0x18(%rbp)
  201514:	48 89 4d e0          	mov    %rcx,-0x20(%rbp)
  201518:	48 8b 75 f8          	mov    -0x8(%rbp),%rsi
  20151c:	48 8b 55 f0          	mov    -0x10(%rbp),%rdx
  201520:	48 8b 4d e8          	mov    -0x18(%rbp),%rcx
  201524:	31 c0                	xor    %eax,%eax
  201526:	31 c0                	xor    %eax,%eax
  201528:	41 89 c0             	mov    %eax,%r8d
  20152b:	bf 13 00 00 00       	mov    $0x13,%edi
  201530:	e8 cf 00 00 00       	call   201604 <OsSystemCall>
  201535:	48 89 45 d0          	mov    %rax,-0x30(%rbp)
  201539:	48 89 55 d8          	mov    %rdx,-0x28(%rbp)
  20153d:	48 8b 4d d8          	mov    -0x28(%rbp),%rcx
  201541:	48 8b 45 e0          	mov    -0x20(%rbp),%rax
  201545:	48 89 08             	mov    %rcx,(%rax)
  201548:	48 8b 45 d0          	mov    -0x30(%rbp),%rax
  20154c:	48 83 c4 30          	add    $0x30,%rsp
  201550:	5d                   	pop    %rbp
  201551:	c3                   	ret
  201552:	cc                   	int3
  201553:	cc                   	int3
  201554:	cc                   	int3
  201555:	cc                   	int3
  201556:	cc                   	int3
  201557:	cc                   	int3
  201558:	cc                   	int3
  201559:	cc                   	int3
  20155a:	cc                   	int3
  20155b:	cc                   	int3
  20155c:	cc                   	int3
  20155d:	cc                   	int3
  20155e:	cc                   	int3
  20155f:	cc                   	int3

0000000000201560 <OsFileSeek>:
  201560:	55                   	push   %rbp
  201561:	48 89 e5             	mov    %rsp,%rbp
  201564:	48 83 ec 30          	sub    $0x30,%rsp
  201568:	48 89 7d f8          	mov    %rdi,-0x8(%rbp)
  20156c:	48 89 75 f0          	mov    %rsi,-0x10(%rbp)
  201570:	48 89 55 e8          	mov    %rdx,-0x18(%rbp)
  201574:	48 89 4d e0          	mov    %rcx,-0x20(%rbp)
  201578:	48 8b 75 f8          	mov    -0x8(%rbp),%rsi
  20157c:	48 8b 55 f0          	mov    -0x10(%rbp),%rdx
  201580:	48 8b 4d e8          	mov    -0x18(%rbp),%rcx
  201584:	31 c0                	xor    %eax,%eax
  201586:	31 c0                	xor    %eax,%eax
  201588:	41 89 c0             	mov    %eax,%r8d
  20158b:	bf 14 00 00 00       	mov    $0x14,%edi
  201590:	e8 6f 00 00 00       	call   201604 <OsSystemCall>
  201595:	48 89 45 d0          	mov    %rax,-0x30(%rbp)
  201599:	48 89 55 d8          	mov    %rdx,-0x28(%rbp)
  20159d:	48 8b 4d d8          	mov    -0x28(%rbp),%rcx
  2015a1:	48 8b 45 e0          	mov    -0x20(%rbp),%rax
  2015a5:	48 89 08             	mov    %rcx,(%rax)
  2015a8:	48 8b 45 d0          	mov    -0x30(%rbp),%rax
  2015ac:	48 83 c4 30          	add    $0x30,%rsp
  2015b0:	5d                   	pop    %rbp
  2015b1:	c3                   	ret
  2015b2:	cc                   	int3
  2015b3:	cc                   	int3
  2015b4:	cc                   	int3
  2015b5:	cc                   	int3
  2015b6:	cc                   	int3
  2015b7:	cc                   	int3
  2015b8:	cc                   	int3
  2015b9:	cc                   	int3
  2015ba:	cc                   	int3
  2015bb:	cc                   	int3
  2015bc:	cc                   	int3
  2015bd:	cc                   	int3
  2015be:	cc                   	int3
  2015bf:	cc                   	int3

00000000002015c0 <OsFileControl>:
  2015c0:	55                   	push   %rbp
  2015c1:	48 89 e5             	mov    %rsp,%rbp
  2015c4:	48 83 ec 30          	sub    $0x30,%rsp
  2015c8:	48 89 7d f8          	mov    %rdi,-0x8(%rbp)
  2015cc:	48 89 75 f0          	mov    %rsi,-0x10(%rbp)
  2015d0:	48 89 55 e8          	mov    %rdx,-0x18(%rbp)
  2015d4:	48 89 4d e0          	mov    %rcx,-0x20(%rbp)
  2015d8:	48 8b 75 f8          	mov    -0x8(%rbp),%rsi
  2015dc:	48 8b 55 f0          	mov    -0x10(%rbp),%rdx
  2015e0:	48 8b 4d e8          	mov    -0x18(%rbp),%rcx
  2015e4:	4c 8b 45 e0          	mov    -0x20(%rbp),%r8
  2015e8:	bf 16 00 00 00       	mov    $0x16,%edi
  2015ed:	e8 12 00 00 00       	call   201604 <OsSystemCall>
  2015f2:	48 89 45 d0          	mov    %rax,-0x30(%rbp)
  2015f6:	48 89 55 d8          	mov    %rdx,-0x28(%rbp)
  2015fa:	48 8b 45 d0          	mov    -0x30(%rbp),%rax
  2015fe:	48 83 c4 30          	add    $0x30,%rsp
  201602:	5d                   	pop    %rbp
  201603:	c3                   	ret

0000000000201604 <OsSystemCall>:
  201604:	48 89 f8             	mov    %rdi,%rax
  201607:	48 89 f7             	mov    %rsi,%rdi
  20160a:	48 89 d6             	mov    %rdx,%rsi
  20160d:	48 89 ca             	mov    %rcx,%rdx
  201610:	0f 05                	syscall
  201612:	c3                   	ret
